(lp0
S'poi'
p1
aS'bonus'
p2
aS'deferral_payments'
p3
aS'deferred_income'
p4
aS'director_fees'
p5
aS'exercised_stock_options'
p6
aS'expenses'
p7
aS'from_messages'
p8
aS'from_poi_to_this_person'
p9
aS'from_this_person_to_poi'
p10
aS'long_term_incentive'
p11
aS'other'
p12
aS'restricted_stock'
p13
aS'restricted_stock_deferred'
p14
aS'salary'
p15
aS'shared_receipt_with_poi'
p16
aS'to_messages'
p17
aS'total_payments'
p18
aS'total_stock_value'
p19
aS'ratio_mail_from_poi'
p20
aS'ratio_mail_to_poi'
p21
a.